(lp0
c__builtin__
set
p1
((lp2
(I4
F0.25
tp3
a(I7
F3.0
tp4
a(I9
F1.5
tp5
a(I12
F1.0
tp6
a(I-2
F0.5
tp7
a(I8
F1.5
tp8
a(I3
F0.08333
tp9
a(I15
F0.5
tp10
a(I-3
F0.25
tp11
a(I2
F0.08333
tp12
a(I-12
F0.25
tp13
a(I14
F1.5
tp14
a(I-7
F2.5
tp15
a(I-4
F3.0
tp16
a(I-12
F0.33333
tp17
a(I-8
F1.0
tp18
a(I-12
F4.0
tp19
a(I-1
F1.5
tp20
a(I-10
F3.0
tp21
a(I9
F0.5
tp22
a(I-5
F1.0
tp23
a(I-1
F0.75
tp24
a(I-4
F3.5
tp25
a(I7
F6.0
tp26
a(I-8
F0.25
tp27
a(I-12
F0.75
tp28
a(I10
F1.5
tp29
a(I12
F0.75
tp30
a(I17
F2.0
tp31
a(I-1
F0.5
tp32
a(I14
F1.0
tp33
a(I-16
F0.5
tp34
a(I2
F0.16666
tp35
a(I0
F4.0
tp36
a(I15
F4.0
tp37
a(I-9
F0.25
tp38
a(I1
F1.0
tp39
a(I3
F2.0
tp40
a(I8
F0.75
tp41
a(I8
F2.0
tp42
a(I-6
F1.0
tp43
a(I-14
F0.5
tp44
a(I-7
F0.5
tp45
a(I-9
F0.33333
tp46
a(I9
F3.0
tp47
a(I6
F0.5
tp48
a(I-5
F2.5
tp49
a(I11
F0.75
tp50
a(I-3
F1.0
tp51
a(I12
F4.0
tp52
a(I16
F0.5
tp53
a(I-9
F2.0
tp54
a(I-7
F0.75
tp55
a(I-11
F0.5
tp56
a(I-2
F0.75
tp57
a(I7
F0.25
tp58
a(I-9
F2.5
tp59
a(I3
F0.75
tp60
a(I-19
F3.5
tp61
a(I0
F1.0
tp62
a(I-14
F0.25
tp63
a(I-7
F3.0
tp64
a(I-12
F3.0
tp65
a(I3
F1.0
tp66
a(I-11
F2.0
tp67
a(I0
F2.5
tp68
a(I-6
F2.0
tp69
a(I-2
F3.0
tp70
a(I-4
F1.0
tp71
a(I5
F0.66666
tp72
a(I15
F1.5
tp73
a(I15
F1.0
tp74
a(I-2
F4.0
tp75
a(I5
F0.75
tp76
a(I17
F0.25
tp77
a(I13
F0.5
tp78
a(I-5
F1.5
tp79
a(I12
F1.5
tp80
a(I6
F4.0
tp81
a(I-2
F0.08333
tp82
a(I4
F3.5
tp83
a(I-17
F0.5
tp84
a(I-17
F3.0
tp85
a(I2
F1.0
tp86
a(I-12
F0.5
tp87
a(I3
F0.33333
tp88
a(I1
F0.66666
tp89
a(I0
F0.5
tp90
a(I9
F4.0
tp91
a(I0
F0.33333
tp92
a(I5
F1.0
tp93
a(I10
F3.0
tp94
a(I7
F2.0
tp95
a(I12
F2.0
tp96
a(I-1
F1.0
tp97
a(I-9
F3.0
tp98
a(I-7
F1.5
tp99
a(I17
F1.0
tp100
a(I-5
F0.25
tp101
a(I-10
F4.0
tp102
a(I9
F0.25
tp103
a(I-8
F2.0
tp104
a(I-11
F3.0
tp105
a(I2
F2.0
tp106
a(I6
F1.0
tp107
a(I4
F0.5
tp108
a(I4
F1.0
tp109
a(I-10
F0.5
tp110
a(I5
F0.33333
tp111
a(I-5
F0.5
tp112
a(I-2
F0.66666
tp113
a(I5
F4.0
tp114
a(I-1
F2.0
tp115
a(I11
F4.0
tp116
a(I7
F1.0
tp117
a(I-2
F2.0
tp118
a(I-2
F0.33333
tp119
a(I-1
F0.33333
tp120
a(I-16
F1.0
tp121
a(I-13
F1.5
tp122
a(I12
F0.25
tp123
a(I0
F5.0
tp124
a(I-4
F0.5
tp125
a(I-1
F4.0
tp126
a(I14
F0.25
tp127
a(I1
F1.5
tp128
a(I-4
F0.33333
tp129
a(I-3
F4.0
tp130
a(I-10
F0.75
tp131
a(I3
F5.0
tp132
a(I8
F3.0
tp133
a(I-8
F1.5
tp134
a(I9
F2.0
tp135
a(I9
F0.33333
tp136
a(I-14
F2.0
tp137
a(I10
F0.75
tp138
a(I-3
F0.5
tp139
a(I7
F4.0
tp140
a(I12
F2.5
tp141
a(I13
F0.75
tp142
a(I2
F0.66666
tp143
a(I-9
F0.75
tp144
a(I-2
F0.16666
tp145
a(I19
F1.0
tp146
a(I0
F2.0
tp147
a(I-14
F1.0
tp148
a(I-3
F0.75
tp149
a(I19
F0.25
tp150
a(I1
F3.0
tp151
a(I4
F0.16666
tp152
a(I-7
F4.0
tp153
a(I3
F0.5
tp154
a(I-11
F1.0
tp155
a(I8
F0.5
tp156
a(I-6
F3.0
tp157
a(I8
F0.25
tp158
a(I-5
F0.75
tp159
a(I-4
F2.0
tp160
a(I6
F2.0
tp161
a(I-3
F3.0
tp162
a(I4
F1.5
tp163
a(I7
F0.33333
tp164
a(I1
F0.5
tp165
a(I13
F1.5
tp166
a(I9
F1.0
tp167
a(I-15
F1.0
tp168
a(I4
F0.33333
tp169
a(I2
F0.33333
tp170
a(I-2
F1.5
tp171
a(I0
F0.75
tp172
a(I22
F1.5
tp173
a(I11
F0.25
tp174
a(I-1
F0.16666
tp175
a(I-5
F4.0
tp176
a(I5
F0.5
tp177
a(I-9
F1.0
tp178
a(I-5
F0.33333
tp179
a(I10
F0.5
tp180
a(I-9
F1.5
tp181
a(I12
F3.0
tp182
a(I17
F1.5
tp183
a(I5
F1.5
tp184
a(I13
F1.0
tp185
a(I21
F2.0
tp186
a(I-15
F1.5
tp187
a(I-4
F0.25
tp188
a(I20
F1.0
tp189
a(I1
F4.0
tp190
a(I-12
F1.0
tp191
a(I-8
F3.0
tp192
a(I1
F0.08333
tp193
a(I2
F3.0
tp194
a(I10
F0.25
tp195
a(I-7
F2.0
tp196
a(I4
F2.0
tp197
a(I-10
F1.0
tp198
a(I-12
F1.5
tp199
a(I-5
F3.0
tp200
a(I5
F3.0
tp201
a(I6
F0.25
tp202
a(I7
F0.5
tp203
a(I-2
F0.25
tp204
a(I-3
F0.33333
tp205
a(I12
F0.5
tp206
a(I-1
F3.0
tp207
a(I17
F0.5
tp208
a(I-4
F0.75
tp209
a(I-10
F2.0
tp210
a(I1
F0.33333
tp211
a(I-21
F1.0
tp212
a(I13
F0.33333
tp213
a(I-13
F0.5
tp214
a(I0
F0.16666
tp215
a(I-8
F0.5
tp216
a(I3
F4.0
tp217
a(I2
F4.0
tp218
a(I14
F0.5
tp219
a(I7
F1.5
tp220
a(I2
F0.25
tp221
a(I3
F0.16666
tp222
a(I8
F4.0
tp223
a(I11
F2.0
tp224
a(I16
F2.0
tp225
a(I19
F0.5
tp226
a(I-8
F0.33333
tp227
a(I-3
F1.5
tp228
a(I1
F0.75
tp229
a(I-10
F1.5
tp230
a(I0
F3.0
tp231
a(I-8
F4.0
tp232
a(I-3
F0.08333
tp233
a(I1
F2.0
tp234
a(I16
F1.0
tp235
a(I7
F5.0
tp236
a(I-10
F0.25
tp237
a(I3
F3.0
tp238
a(I-11
F1.5
tp239
a(I2
F0.5
tp240
a(I8
F1.0
tp241
a(I-6
F0.5
tp242
a(I4
F4.0
tp243
a(I-15
F0.5
tp244
a(I3
F0.25
tp245
a(I6
F3.0
tp246
a(I11
F1.0
tp247
a(I-3
F2.0
tp248
a(I2
F0.41666
tp249
a(I-1
F0.08333
tp250
a(I5
F0.25
tp251
a(I-19
F1.0
tp252
a(I-1
F0.66666
tp253
a(I0
F1.5
tp254
a(I-17
F2.0
tp255
a(I-12
F2.0
tp256
a(I-2
F1.0
tp257
a(I-4
F0.16666
tp258
a(I6
F1.5
tp259
a(I-7
F0.33333
tp260
a(I-1
F0.25
tp261
a(I-9
F0.5
tp262
a(I10
F1.0
tp263
a(I-4
F1.5
tp264
a(I4
F0.75
tp265
a(I0
F0.25
tp266
a(I5
F2.5
tp267
a(I12
F0.33333
tp268
a(I11
F0.5
tp269
a(I7
F0.75
tp270
a(I1
F0.25
tp271
a(I-8
F0.75
tp272
a(I1
F0.16666
tp273
a(I-7
F0.25
tp274
a(I5
F2.0
tp275
a(I-17
F1.0
tp276
a(I2
F1.5
tp277
a(I8
F0.33333
tp278
a(I-7
F1.0
tp279
a(I4
F3.0
tp280
a(I2
F0.75
tp281
a(I-5
F2.0
tp282
a(I3
F1.5
tp283
a(I10
F2.0
tp284
atp285
Rp286
a(dp287
g4
I1
sg253
I250
sg103
I100
sg6
I3
sg7
I4
sg222
I219
sg10
I7
sg159
I156
sg74
I71
sg141
I138
sg214
I211
sg17
I14
sg18
I15
sg19
I16
sg57
I54
sg21
I18
sg230
I227
sg5
I2
sg23
I20
sg211
I208
sg264
I261
sg26
I23
sg216
I213
sg87
I84
sg138
I135
sg202
I199
sg31
I28
sg24
I21
sg33
I30
sg34
I31
sg35
I32
sg89
I86
sg36
I33
sg37
I34
sg262
I259
sg39
I36
sg228
I225
sg40
I37
sg41
I38
sg42
I39
sg43
I40
sg44
I41
sg157
I154
sg227
I224
sg47
I44
sg48
I45
sg50
I47
sg51
I48
sg272
I269
sg53
I50
sg45
I42
sg32
I29
sg203
I200
sg278
I275
sg154
I151
sg61
I58
sg62
I59
sg63
I60
sg64
I61
sg112
I109
sg65
I62
sg197
I194
sg30
I27
sg67
I64
sg101
I98
sg69
I66
sg98
I95
sg277
I274
sg71
I68
sg111
I108
sg260
I257
sg75
I72
sg130
I127
sg183
I180
sg78
I75
sg49
I46
sg66
I63
sg82
I79
sg84
I81
sg86
I83
sg13
I10
sg88
I85
sg171
I168
sg15
I12
sg90
I87
sg91
I88
sg93
I90
sg94
I91
sg95
I92
sg96
I93
sg97
I94
sg265
I262
sg99
I96
sg73
I70
sg166
I163
sg257
I254
sg104
I101
sg106
I103
sg108
I105
sg3
I0
sg109
I106
sg110
I107
sg72
I69
sg79
I76
sg81
I78
sg114
I111
sg118
I115
sg116
I113
sg117
I114
sg115
I112
sg22
I19
sg100
I97
sg121
I118
sg122
I119
sg123
I120
sg124
I121
sg258
I255
sg125
I122
sg126
I123
sg219
I216
sg128
I125
sg129
I126
sg173
I170
sg132
I129
sg133
I130
sg134
I131
sg135
I132
sg107
I104
sg169
I166
sg170
I167
sg11
I8
sg218
I215
sg140
I137
sg52
I49
sg142
I139
sg143
I140
sg59
I56
sg175
I172
sg92
I89
sg147
I144
sg148
I145
sg139
I136
sg199
I196
sg151
I148
sg263
I260
sg153
I150
sg60
I57
sg155
I152
sg8
I5
sg46
I43
sg158
I155
sg54
I51
sg251
I248
sg160
I157
sg161
I158
sg162
I159
sg163
I160
sg270
I267
sg164
I161
sg165
I162
sg167
I164
sg259
I256
sg168
I165
sg137
I134
sg85
I82
sg20
I17
sg172
I169
sg273
I270
sg102
I99
sg271
I268
sg176
I173
sg76
I73
sg178
I175
sg131
I128
sg12
I9
sg181
I178
sg245
I242
sg224
I221
sg182
I179
sg177
I174
sg185
I182
sg156
I153
sg187
I184
sg188
I185
sg189
I186
sg190
I187
sg191
I188
sg179
I176
sg192
I189
sg193
I190
sg194
I191
sg29
I26
sg196
I193
sg186
I183
sg198
I195
sg28
I25
sg200
I197
sg201
I198
sg58
I55
sg261
I258
sg205
I202
sg80
I77
sg70
I67
sg77
I74
sg209
I206
sg210
I207
sg55
I52
sg283
I280
sg213
I210
sg276
I273
sg119
I116
sg215
I212
sg27
I24
sg217
I214
sg136
I133
sg120
I117
sg127
I124
sg220
I217
sg208
I205
sg9
I6
sg223
I220
sg145
I142
sg225
I222
sg226
I223
sg212
I209
sg14
I11
sg229
I226
sg150
I147
sg254
I251
sg231
I228
sg144
I141
sg195
I192
sg234
I231
sg235
I232
sg237
I234
sg238
I235
sg56
I53
sg240
I237
sg241
I238
sg242
I239
sg243
I240
sg244
I241
sg16
I13
sg246
I243
sg206
I203
sg248
I245
sg249
I246
sg250
I247
sg184
I181
sg252
I249
sg113
I110
sg68
I65
sg233
I230
sg255
I252
sg256
I253
sg247
I244
sg149
I146
sg105
I102
sg204
I201
sg38
I35
sg152
I149
sg25
I22
sg83
I80
sg266
I263
sg267
I264
sg268
I265
sg174
I171
sg180
I177
sg146
I143
sg239
I236
sg269
I266
sg274
I271
sg232
I229
sg221
I218
sg236
I233
sg279
I276
sg280
I277
sg281
I278
sg282
I279
sg284
I281
sg275
I272
sg207
I204
sa(dp288
I0
g3
sI1
g4
sI2
g5
sI3
g6
sI4
g7
sI5
g8
sI6
g9
sI7
g10
sI8
g11
sI9
g12
sI10
g13
sI11
g14
sI12
g15
sI13
g16
sI14
g17
sI15
g18
sI16
g19
sI17
g20
sI18
g21
sI19
g22
sI20
g23
sI21
g24
sI22
g25
sI23
g26
sI24
g27
sI25
g28
sI26
g29
sI27
g30
sI28
g31
sI29
g32
sI30
g33
sI31
g34
sI32
g35
sI33
g36
sI34
g37
sI35
g38
sI36
g39
sI37
g40
sI38
g41
sI39
g42
sI40
g43
sI41
g44
sI42
g45
sI43
g46
sI44
g47
sI45
g48
sI46
g49
sI47
g50
sI48
g51
sI49
g52
sI50
g53
sI51
g54
sI52
g55
sI53
g56
sI54
g57
sI55
g58
sI56
g59
sI57
g60
sI58
g61
sI59
g62
sI60
g63
sI61
g64
sI62
g65
sI63
g66
sI64
g67
sI65
g68
sI66
g69
sI67
g70
sI68
g71
sI69
g72
sI70
g73
sI71
g74
sI72
g75
sI73
g76
sI74
g77
sI75
g78
sI76
g79
sI77
g80
sI78
g81
sI79
g82
sI80
g83
sI81
g84
sI82
g85
sI83
g86
sI84
g87
sI85
g88
sI86
g89
sI87
g90
sI88
g91
sI89
g92
sI90
g93
sI91
g94
sI92
g95
sI93
g96
sI94
g97
sI95
g98
sI96
g99
sI97
g100
sI98
g101
sI99
g102
sI100
g103
sI101
g104
sI102
g105
sI103
g106
sI104
g107
sI105
g108
sI106
g109
sI107
g110
sI108
g111
sI109
g112
sI110
g113
sI111
g114
sI112
g115
sI113
g116
sI114
g117
sI115
g118
sI116
g119
sI117
g120
sI118
g121
sI119
g122
sI120
g123
sI121
g124
sI122
g125
sI123
g126
sI124
g127
sI125
g128
sI126
g129
sI127
g130
sI128
g131
sI129
g132
sI130
g133
sI131
g134
sI132
g135
sI133
g136
sI134
g137
sI135
g138
sI136
g139
sI137
g140
sI138
g141
sI139
g142
sI140
g143
sI141
g144
sI142
g145
sI143
g146
sI144
g147
sI145
g148
sI146
g149
sI147
g150
sI148
g151
sI149
g152
sI150
g153
sI151
g154
sI152
g155
sI153
g156
sI154
g157
sI155
g158
sI156
g159
sI157
g160
sI158
g161
sI159
g162
sI160
g163
sI161
g164
sI162
g165
sI163
g166
sI164
g167
sI165
g168
sI166
g169
sI167
g170
sI168
g171
sI169
g172
sI170
g173
sI171
g174
sI172
g175
sI173
g176
sI174
g177
sI175
g178
sI176
g179
sI177
g180
sI178
g181
sI179
g182
sI180
g183
sI181
g184
sI182
g185
sI183
g186
sI184
g187
sI185
g188
sI186
g189
sI187
g190
sI188
g191
sI189
g192
sI190
g193
sI191
g194
sI192
g195
sI193
g196
sI194
g197
sI195
g198
sI196
g199
sI197
g200
sI198
g201
sI199
g202
sI200
g203
sI201
g204
sI202
g205
sI203
g206
sI204
g207
sI205
g208
sI206
g209
sI207
g210
sI208
g211
sI209
g212
sI210
g213
sI211
g214
sI212
g215
sI213
g216
sI214
g217
sI215
g218
sI216
g219
sI217
g220
sI218
g221
sI219
g222
sI220
g223
sI221
g224
sI222
g225
sI223
g226
sI224
g227
sI225
g228
sI226
g229
sI227
g230
sI228
g231
sI229
g232
sI230
g233
sI231
g234
sI232
g235
sI233
g236
sI234
g237
sI235
g238
sI236
g239
sI237
g240
sI238
g241
sI239
g242
sI240
g243
sI241
g244
sI242
g245
sI243
g246
sI244
g247
sI245
g248
sI246
g249
sI247
g250
sI248
g251
sI249
g252
sI250
g253
sI251
g254
sI252
g255
sI253
g256
sI254
g257
sI255
g258
sI256
g259
sI257
g260
sI258
g261
sI259
g262
sI260
g263
sI261
g264
sI262
g265
sI263
g266
sI264
g267
sI265
g268
sI266
g269
sI267
g270
sI268
g271
sI269
g272
sI270
g273
sI271
g274
sI272
g275
sI273
g276
sI274
g277
sI275
g278
sI276
g279
sI277
g280
sI278
g281
sI279
g282
sI280
g283
sI281
g284
saI282
a.